(dp1
S'output'
p2
S"<type 'exceptions.AttributeError'> 'NoneType' object has no attribute 'first_name'"
p3
sS'layer'
p4
S'D:\\CursoWeb2py\\web2py\\applications\\sirius\\views\\default/index.html'
p5
sS'code'
p6
S'left_sidebar_enabled,right_sidebar_enabled=False,(\'message\' in globals())\nresponse.write(\'\\n\', escape=False)\nresponse.write(\'<!DOCTYPE html>\\r\\n<html xmlns="http://www.w3.org/1999/xhtml">\\r\\n<head>\\r\\n    <meta charset="utf-8" />\\r\\n    <meta name="viewport" content="width=device-width, initial-scale=1, maximum-scale=1" />\\r\\n    <meta name="description" content="" />\\r\\n    <meta name="author" content="" />\\r\\n    <!--[if IE]>\\r\\n        <meta http-equiv="X-UA-Compatible" content="IE=edge,chrome=1">\\r\\n        <![endif]-->\\r\\n    <title>\', escape=False)\nresponse.write(response.title)\nresponse.write(\'</title>\\r\\n    <!-- BOOTSTRAP CORE STYLE  -->\\r\\n    <link href="\', escape=False)\nresponse.write(URL(\'static\', \'css/bootstrap.css\'))\nresponse.write(\'" rel="stylesheet" />\\r\\n    <!-- FONT AWESOME ICONS  -->\\r\\n    <link href="\', escape=False)\nresponse.write(URL(\'static\', \'css/font-awesome.css\'))\nresponse.write(\'" rel="stylesheet" />\\r\\n    <!-- CUSTOM STYLE  -->\\r\\n    <link href="\', escape=False)\nresponse.write(URL(\'static\', \'css/style.css\'))\nresponse.write(\'" rel="stylesheet" />\\r\\n     <!-- HTML5 Shiv and Respond.js for IE8 support of HTML5 elements and media queries -->\\r\\n    <!-- WARNING: Respond.js doesn\\\'t work if you view the page via file:// -->\\r\\n    <!--[if lt IE 9]>\\r\\n        <script src="https://oss.maxcdn.com/libs/html5shiv/3.7.0/html5shiv.js"></script>\\r\\n        <script src="https://oss.maxcdn.com/libs/respond.js/1.4.2/respond.min.js"></script>\\r\\n    <![endif]-->\\r\\n</head>\\r\\n<body>\\r\\n    <header>\\r\\n        <div class="container">\\r\\n            <div class="row">\\r\\n                <div class="col-md-12">\\r\\n                    <strong>Email: </strong>silviusdobrasil@gmail.com\\r\\n                    &nbsp;&nbsp;\\r\\n                    <strong>Support: </strong>+55-75-9982-4430\\r\\n                </div>\\r\\n\\r\\n            </div>\\r\\n        </div>\\r\\n    </header>\\r\\n    <!-- HEADER END-->\\r\\n    <div class="navbar navbar-inverse set-radius-zero">\\r\\n        <div class="container">\\r\\n            <div class="navbar-header">\\r\\n                <button type="button" class="navbar-toggle" data-toggle="collapse" data-target=".navbar-collapse">\\r\\n                    <span class="icon-bar"></span>\\r\\n                    <span class="icon-bar"></span>\\r\\n                    <span class="icon-bar"></span>\\r\\n                </button>\\r\\n                <a class="navbar-brand" href="\', escape=False)\nresponse.write(URL(\'index.html\'))\nresponse.write(\'">\\r\\n                    <h1 style="color:white">Sirius-Web</h1>\\r\\n                </a>\\r\\n\\r\\n            </div>\\r\\n\\r\\n            <div class="left-div">\\r\\n                <div class="user-settings-wrapper">\\r\\n                    <ul class="nav">\\r\\n\\r\\n                        <li class="dropdown">\\r\\n                            <a class="dropdown-toggle" data-toggle="dropdown" href="#" aria-expanded="false">\\r\\n                                <span class="glyphicon glyphicon-user" style="font-size: 25px;"></span>\\r\\n                            </a>\\r\\n                            <div class="dropdown-menu dropdown-settings">\\r\\n                                <div class="media">\\r\\n                                    <a class="media-left" href="#">\\r\\n                                        <img src="\', escape=False)\nresponse.write(URL(\'static\',\'img/logoSirius.png\'))\nresponse.write(\'" alt="Sirius" class="img-rounded" width="50" height="50" />\\r\\n                                    </a>\\r\\n                                    <div class="media-body">\\r\\n                                        <h4 class="media-heading">\', escape=False)\nresponse.write(auth.user.first_name)\nresponse.write(\'</h4>\\r\\n                                        <h5>Diretor Escolar</h5>\\r\\n\\r\\n                                    </div>\\r\\n                                </div>\\r\\n                                <hr />\\r\\n                                <h5><strong></strong></h5>\\r\\n\\r\\n                                <hr />\\r\\n                                <a href="\', escape=False)\nresponse.write(URL(\'user\', args=\'login\'))\nresponse.write(\'" class="btn btn-info btn-sm">Full Profile</a>&nbsp; <a href="\', escape=False)\nresponse.write(URL(\'user\', args=\'logout\'))\nresponse.write(\'" class="btn btn-danger btn-sm">Logout</a>\\r\\n\\r\\n                            </div>\\r\\n                        </li>\\r\\n\\r\\n\\r\\n                    </ul>\\r\\n                </div>\\r\\n            </div>\\r\\n        </div>\\r\\n    </div>\\r\\n    <!-- LOGO HEADER END-->\\r\\n    <section class="menu-section">\\r\\n        <div class="container">\\r\\n            <div class="row">\\r\\n                <div class="col-md-12">\\r\\n                    <div class="navbar-collapse collapse ">\\r\\n                        <ul id="menu-top" class="nav navbar-nav navbar-right">\\r\\n                            <li><a  href="index.html">Dashboard</a></li>\\r\\n                            <li><a href="ui.html">UI Elements</a></li>\\r\\n                            <li><a href="table.html">Data Tables</a></li>\\r\\n                            <li><a href="forms.html">Forms</a></li>\\r\\n                             <li><a href="login.html">Login Page</a></li>\\r\\n                            <li><a class="menu-top-active" href="blank.html">Blank Page</a></li>\\r\\n\\r\\n                        </ul>\\r\\n                    </div>\\r\\n                </div>\\r\\n\\r\\n            </div>\\r\\n        </div>\\r\\n    </section>\\r\\n    <!-- MENU SECTION END-->\\r\\n    <div class="content-wrapper">\\r\\n        <div class="container">\\r\\n            <div class="row">\\r\\n                <div class="col-md-12">\\r\\n                    <h4 class="page-head-line">Blank Page</h4>\\r\\n\\r\\n                </div>\\r\\n\\r\\n            </div>\\r\\n            <div class="row">\\r\\n                <div class="col-md-12">\\r\\n                    <div class="alert alert-warning">\\r\\n                        This is blank page for which you can customize for your project.\\r\\n                        Use this admin template 100% free to use for personal and commercial use which is crafted by\\r\\n                        <br />\\r\\n                        <a href="http://www.designbootstrap.com/" target="_blank">DesignBootstrap.com</a> . For more free templates and snippets keep looking <a href="http://www.designbootstrap.com/" target="_blank">DesignBootstrap.com</a> . Hope you will like our work\\r\\n\\r\\n                    </div>\\r\\n                </div>\\r\\n\\r\\n            </div>\\r\\n        </div>\\r\\n    </div>\\r\\n    <!-- CONTENT-WRAPPER SECTION END-->\\r\\n    <footer>\\r\\n        <div class="container">\\r\\n            <div class="row">\\r\\n                <div class="col-md-12">\\r\\n                    &copy; 2015 Silvius do Brasil Ltda | Todos os direitos reservados <a href="http://www.silviusdobrasil.com.br/" target="_blank"></a>\\r\\n                </div>\\r\\n\\r\\n            </div>\\r\\n        </div>\\r\\n    </footer>\\r\\n    <!-- FOOTER SECTION END-->\\r\\n    <!-- JAVASCRIPT AT THE BOTTOM TO REDUCE THE LOADING TIME  -->\\r\\n    <!-- CORE JQUERY SCRIPTS -->\\r\\n    <script src="\', escape=False)\nresponse.write(URL(\'static\',\'js/jquery.js\'))\nresponse.write(\'"></script>\\r\\n    <!-- BOOTSTRAP SCRIPTS  -->\\r\\n    <script src="\', escape=False)\nresponse.write(URL(\'static\', \'js/bootstrap.min.js\'))\nresponse.write(\'"></script>\\r\\n</body>\\r\\n</html>\\r\\n\', escape=False)'
p7
sS'snapshot'
p8
(dp9
S'exception'
p10
(dp11
S'__hash__'
p12
S"<method-wrapper '__hash__' of exceptions.AttributeError object>"
p13
sS'__setattr__'
p14
S"<method-wrapper '__setattr__' of exceptions.AttributeError object>"
p15
sS'__reduce_ex__'
p16
S'<built-in method __reduce_ex__ of exceptions.AttributeError object>'
p17
sS'__getslice__'
p18
S"<method-wrapper '__getslice__' of exceptions.AttributeError object>"
p19
sS'__getitem__'
p20
S"<method-wrapper '__getitem__' of exceptions.AttributeError object>"
p21
sS'__setstate__'
p22
S'<built-in method __setstate__ of exceptions.AttributeError object>'
p23
sS'__reduce__'
p24
S'<built-in method __reduce__ of exceptions.AttributeError object>'
p25
sS'__str__'
p26
S"<method-wrapper '__str__' of exceptions.AttributeError object>"
p27
sS'__format__'
p28
S'<built-in method __format__ of exceptions.AttributeError object>'
p29
sS'__getattribute__'
p30
S"<method-wrapper '__getattribute__' of exceptions.AttributeError object>"
p31
sS'__class__'
p32
S"<type 'exceptions.AttributeError'>"
p33
sS'__unicode__'
p34
S'<built-in method __unicode__ of exceptions.AttributeError object>'
p35
sS'__delattr__'
p36
S"<method-wrapper '__delattr__' of exceptions.AttributeError object>"
p37
sS'__subclasshook__'
p38
S'<built-in method __subclasshook__ of type object>'
p39
sS'__repr__'
p40
S"<method-wrapper '__repr__' of exceptions.AttributeError object>"
p41
sS'args'
p42
S'("\'NoneType\' object has no attribute \'first_name\'",)'
p43
sS'__dict__'
p44
S'{}'
p45
sS'__sizeof__'
p46
S'<built-in method __sizeof__ of exceptions.AttributeError object>'
p47
sS'__doc__'
p48
S"'Attribute not found.'"
p49
sS'__init__'
p50
S"<method-wrapper '__init__' of exceptions.AttributeError object>"
p51
sS'__new__'
p52
S'<built-in method __new__ of type object>'
p53
ssS'evalue'
p54
S"'NoneType' object has no attribute 'first_name'"
p55
sS'request'
p56
cgluon.html
XML_unpickle
p57
(S's(a\x00\x00<div><table><tr><td style="font-weight:bold;vertical-align:top;">ajax</td><td style="vertical-align:top;">:</td><td><div>False</div></td></tr><tr><td style="font-weight:bold;vertical-align:top;">application</td><td style="vertical-align:top;">:</td><td><div>sirius</div></td></tr><tr><td style="font-weight:bold;vertical-align:top;">args</td><td style="vertical-align:top;">:</td><td><div><table></table></div></td></tr><tr><td style="font-weight:bold;vertical-align:top;">cid</td><td style="vertical-align:top;">:</td><td><div>None</div></td></tr><tr><td style="font-weight:bold;vertical-align:top;">client</td><td style="vertical-align:top;">:</td><td><div>127.0.0.1</div></td></tr><tr><td style="font-weight:bold;vertical-align:top;">controller</td><td style="vertical-align:top;">:</td><td><div>default</div></td></tr><tr><td style="font-weight:bold;vertical-align:top;">cookies</td><td style="vertical-align:top;">:</td><td><div><table><tr><td style="font-weight:bold;vertical-align:top;">session_id_admin</td><td style="vertical-align:top;">:</td><td><div>127.0.0.1-4f26fe64-47b8-42fa-b486-b611c5fd9fae<table><tr><td style="font-weight:bold;vertical-align:top;">comment</td><td style="vertical-align:top;">:</td><td><div></div></td></tr><tr><td style="font-weight:bold;vertical-align:top;">domain</td><td style="vertical-align:top;">:</td><td><div></div></td></tr><tr><td style="font-weight:bold;vertical-align:top;">expires</td><td style="vertical-align:top;">:</td><td><div></div></td></tr><tr><td style="font-weight:bold;vertical-align:top;">httponly</td><td style="vertical-align:top;">:</td><td><div></div></td></tr><tr><td style="font-weight:bold;vertical-align:top;">max-age</td><td style="vertical-align:top;">:</td><td><div></div></td></tr><tr><td style="font-weight:bold;vertical-align:top;">path</td><td style="vertical-align:top;">:</td><td><div></div></td></tr><tr><td style="font-weight:bold;vertical-align:top;">secure</td><td style="vertical-align:top;">:</td><td><div></div></td></tr><tr><td style="font-weight:bold;vertical-align:top;">version</td><td style="vertical-align:top;">:</td><td><div></div></td></tr></table></div></td></tr><tr><td style="font-weight:bold;vertical-align:top;">session_id_sirius</td><td style="vertical-align:top;">:</td><td><div>127.0.0.1-56690d16-f124-4a23-ab1f-b8ef19493551<table><tr><td style="font-weight:bold;vertical-align:top;">comment</td><td style="vertical-align:top;">:</td><td><div></div></td></tr><tr><td style="font-weight:bold;vertical-align:top;">domain</td><td style="vertical-align:top;">:</td><td><div></div></td></tr><tr><td style="font-weight:bold;vertical-align:top;">expires</td><td style="vertical-align:top;">:</td><td><div></div></td></tr><tr><td style="font-weight:bold;vertical-align:top;">httponly</td><td style="vertical-align:top;">:</td><td><div></div></td></tr><tr><td style="font-weight:bold;vertical-align:top;">max-age</td><td style="vertical-align:top;">:</td><td><div></div></td></tr><tr><td style="font-weight:bold;vertical-align:top;">path</td><td style="vertical-align:top;">:</td><td><div></div></td></tr><tr><td style="font-weight:bold;vertical-align:top;">secure</td><td style="vertical-align:top;">:</td><td><div></div></td></tr><tr><td style="font-weight:bold;vertical-align:top;">version</td><td style="vertical-align:top;">:</td><td><div></div></td></tr></table></div></td></tr><tr><td style="font-weight:bold;vertical-align:top;">session_id_sirius7</td><td style="vertical-align:top;">:</td><td><div>127.0.0.1-d36ccb17-fc1e-4ae1-bcef-c243e14d5549<table><tr><td style="font-weight:bold;vertical-align:top;">comment</td><td style="vertical-align:top;">:</td><td><div></div></td></tr><tr><td style="font-weight:bold;vertical-align:top;">domain</td><td style="vertical-align:top;">:</td><td><div></div></td></tr><tr><td style="font-weight:bold;vertical-align:top;">expires</td><td style="vertical-align:top;">:</td><td><div></div></td></tr><tr><td style="font-weight:bold;vertical-align:top;">httponly</td><td style="vertical-align:top;">:</td><td><div></div></td></tr><tr><td style="font-weight:bold;vertical-align:top;">max-age</td><td style="vertical-align:top;">:</td><td><div></div></td></tr><tr><td style="font-weight:bold;vertical-align:top;">path</td><td style="vertical-align:top;">:</td><td><div></div></td></tr><tr><td style="font-weight:bold;vertical-align:top;">secure</td><td style="vertical-align:top;">:</td><td><div></div></td></tr><tr><td style="font-weight:bold;vertical-align:top;">version</td><td style="vertical-align:top;">:</td><td><div></div></td></tr></table></div></td></tr><tr><td style="font-weight:bold;vertical-align:top;">session_id_welcome</td><td style="vertical-align:top;">:</td><td><div>127.0.0.1-6f1b362d-baf7-435c-97e5-93e6bef9dd8b<table><tr><td style="font-weight:bold;vertical-align:top;">comment</td><td style="vertical-align:top;">:</td><td><div></div></td></tr><tr><td style="font-weight:bold;vertical-align:top;">domain</td><td style="vertical-align:top;">:</td><td><div></div></td></tr><tr><td style="font-weight:bold;vertical-align:top;">expires</td><td style="vertical-align:top;">:</td><td><div></div></td></tr><tr><td style="font-weight:bold;vertical-align:top;">httponly</td><td style="vertical-align:top;">:</td><td><div></div></td></tr><tr><td style="font-weight:bold;vertical-align:top;">max-age</td><td style="vertical-align:top;">:</td><td><div></div></td></tr><tr><td style="font-weight:bold;vertical-align:top;">path</td><td style="vertical-align:top;">:</td><td><div></div></td></tr><tr><td style="font-weight:bold;vertical-align:top;">secure</td><td style="vertical-align:top;">:</td><td><div></div></td></tr><tr><td style="font-weight:bold;vertical-align:top;">version</td><td style="vertical-align:top;">:</td><td><div></div></td></tr></table></div></td></tr></table></div></td></tr><tr><td style="font-weight:bold;vertical-align:top;">env</td><td style="vertical-align:top;">:</td><td><div><table><tr><td style="font-weight:bold;vertical-align:top;">HTTP_ACCEPT</td><td style="vertical-align:top;">:</td><td><div>text/html,application/xhtml+xml,application/xml;q=0.9,*/*;q=0.8</div></td></tr><tr><td style="font-weight:bold;vertical-align:top;">HTTP_ACCEPT_ENCODING</td><td style="vertical-align:top;">:</td><td><div>gzip, deflate</div></td></tr><tr><td style="font-weight:bold;vertical-align:top;">HTTP_ACCEPT_LANGUAGE</td><td style="vertical-align:top;">:</td><td><div>pt-BR,pt;q=0.8,en-US;q=0.5,en;q=0.3</div></td></tr><tr><td style="font-weight:bold;vertical-align:top;">HTTP_CONNECTION</td><td style="vertical-align:top;">:</td><td><div>keep-alive</div></td></tr><tr><td style="font-weight:bold;vertical-align:top;">HTTP_COOKIE</td><td style="vertical-align:top;">:</td><td><div>session_id_welcome=127.0.0.1-6f1b362d-baf7-435c-97e5-93e6bef9dd8b; session_id_admin=127.0.0.1-4f26fe64-47b8-42fa-b486-b611c5fd9fae; session_id_sirius=127.0.0.1-56690d16-f124-4a23-ab1f-b8ef19493551; session_id_sirius7=127.0.0.1-d36ccb17-fc1e-4ae1-bcef-c243e14d5549</div></td></tr><tr><td style="font-weight:bold;vertical-align:top;">HTTP_HOST</td><td style="vertical-align:top;">:</td><td><div>127.0.0.1:8000</div></td></tr><tr><td style="font-weight:bold;vertical-align:top;">HTTP_USER_AGENT</td><td style="vertical-align:top;">:</td><td><div>Mozilla/5.0 (Windows NT 10.0; rv:41.0) Gecko/20100101 Firefox/41.0</div></td></tr><tr><td style="font-weight:bold;vertical-align:top;">PATH_INFO</td><td style="vertical-align:top;">:</td><td><div>/sirius/default/index</div></td></tr><tr><td style="font-weight:bold;vertical-align:top;">QUERY_STRING</td><td style="vertical-align:top;">:</td><td><div></div></td></tr><tr><td style="font-weight:bold;vertical-align:top;">REMOTE_ADDR</td><td style="vertical-align:top;">:</td><td><div>127.0.0.1</div></td></tr><tr><td style="font-weight:bold;vertical-align:top;">REMOTE_PORT</td><td style="vertical-align:top;">:</td><td><div>59451</div></td></tr><tr><td style="font-weight:bold;vertical-align:top;">REQUEST_METHOD</td><td style="vertical-align:top;">:</td><td><div>GET</div></td></tr><tr><td style="font-weight:bold;vertical-align:top;">SCRIPT_NAME</td><td style="vertical-align:top;">:</td><td><div></div></td></tr><tr><td style="font-weight:bold;vertical-align:top;">SERVER_NAME</td><td style="vertical-align:top;">:</td><td><div>DESKTOP-0B3EOQ6</div></td></tr><tr><td style="font-weight:bold;vertical-align:top;">SERVER_PORT</td><td style="vertical-align:top;">:</td><td><div>8000</div></td></tr><tr><td style="font-weight:bold;vertical-align:top;">SERVER_PROTOCOL</td><td style="vertical-align:top;">:</td><td><div>HTTP/1.1</div></td></tr><tr><td style="font-weight:bold;vertical-align:top;">SERVER_SOFTWARE</td><td style="vertical-align:top;">:</td><td><div>Rocket 1.2.6</div></td></tr><tr><td style="font-weight:bold;vertical-align:top;">app_folders</td><td style="vertical-align:top;">:</td><td><div>set([&#x27;D:\\\\CursoWeb2py\\\\web2py\\\\applications\\\\admin\\\\&#x27;, &#x27;D:\\\\CursoWeb2py\\\\web2py\\\\applications\\\\sirius\\\\&#x27;, &#x27;D:\\\\CursoWeb2py\\\\web2py\\\\applications\\\\welcome\\\\&#x27;, &#x27;D:\\\\CursoWeb2py\\\\web2py\\\\applications\\\\Sirius7\\\\&#x27;])</div></td></tr><tr><td style="font-weight:bold;vertical-align:top;">applications_parent</td><td style="vertical-align:top;">:</td><td><div>D:\\CursoWeb2py\\web2py</div></td></tr><tr><td style="font-weight:bold;vertical-align:top;">cmd_args</td><td style="vertical-align:top;">:</td><td><div><table></table></div></td></tr><tr><td style="font-weight:bold;vertical-align:top;">cmd_options</td><td style="vertical-align:top;">:</td><td><div>&lt;Values at 0x26b79e0: {&#x27;verbose&#x27;: False, &#x27;ip&#x27;: &#x27;127.0.0.1&#x27;, &#x27;debuglevel&#x27;: 30, &#x27;with_scheduler&#x27;: False, &#x27;ips&#x27;: [&#x27;fe80::2443:952:453d:e762%3&#x27;, &#x27;fe80::f581:292a:352:681%2&#x27;, &#x27;2001:0:5ef5:79fd:2443:952:453d:e762&#x27;, &#x27;192.168.0.13&#x27;], &#x27;shutdown_timeout&#x27;: 5, &#x27;taskbar&#x27;: False, &#x27;with_coverage&#x27;: False, &#x27;scheduler_groups&#x27;: None, &#x27;port&#x27;: 8000, &#x27;maxthreads&#x27;: None, &#x27;softcron&#x27;: False, &#x27;server_name&#x27;: &#x27;DESKTOP-0B3EOQ6&#x27;, &#x27;bpython&#x27;: False, &#x27;nogui&#x27;: False, &#x27;pid_filename&#x27;: &#x27;httpserver.pid&#x27;, &#x27;print_errors&#x27;: False, &#x27;extcron&#x27;: False, &#x27;runcron&#x27;: False, &#x27;run_system_tests&#x27;: False, &#x27;test&#x27;: None, &#x27;folder&#x27;: &#x27;D:\\\\CursoWeb2py\\\\web2py&#x27;, &#x27;config&#x27;: &#x27;&#x27;, &#x27;minthreads&#x27;: None, &#x27;shell&#x27;: None, &#x27;run&#x27;: &#x27;&#x27;, &#x27;log_filename&#x27;: &#x27;httpserver.log&#x27;, &#x27;profiler_dir&#x27;: None, &#x27;args&#x27;: [&#x27;&#x27;], &#x27;socket_timeout&#x27;: 5, &#x27;ssl_ca_certificate&#x27;: None, &#x27;scheduler&#x27;: None, &#x27;interfaces&#x27;: None, &#x27;ssl_private_key&#x27;: &#x27;&#x27;, &#x27;gae&#x27;: None, &#x27;password&#x27;: &#x27;&lt;ask&gt;&#x27;, &#x27;request_queue_size&#x27;: 5, &#x27;ssl_certificate&#x27;: &#x27;&#x27;, &#x27;cronjob&#x27;: False, &#x27;numthreads&#x27;: None, &#x27;quiet&#x27;: False, &#x27;import_models&#x27;: False, &#x27;timeout&#x27;: 10, &#x27;plain&#x27;: False, &#x27;nobanner&#x27;: False}&gt;</div></td></tr><tr><td style="font-weight:bold;vertical-align:top;">db_sessions</td><td style="vertical-align:top;">:</td><td><div>set([])</div></td></tr><tr><td style="font-weight:bold;vertical-align:top;">debugging</td><td style="vertical-align:top;">:</td><td><div>False</div></td></tr><tr><td style="font-weight:bold;vertical-align:top;">gluon_parent</td><td style="vertical-align:top;">:</td><td><div>D:\\CursoWeb2py\\web2py</div></td></tr><tr><td style="font-weight:bold;vertical-align:top;">http_accept</td><td style="vertical-align:top;">:</td><td><div>text/html,application/xhtml+xml,application/xml;q=0.9,*/*;q=0.8</div></td></tr><tr><td style="font-weight:bold;vertical-align:top;">http_accept_encoding</td><td style="vertical-align:top;">:</td><td><div>gzip, deflate</div></td></tr><tr><td style="font-weight:bold;vertical-align:top;">http_accept_language</td><td style="vertical-align:top;">:</td><td><div>pt-BR,pt;q=0.8,en-US;q=0.5,en;q=0.3</div></td></tr><tr><td style="font-weight:bold;vertical-align:top;">http_connection</td><td style="vertical-align:top;">:</td><td><div>keep-alive</div></td></tr><tr><td style="font-weight:bold;vertical-align:top;">http_cookie</td><td style="vertical-align:top;">:</td><td><div>session_id_welcome=127.0.0.1-6f1b362d-baf7-435c-97e5-93e6bef9dd8b; session_id_admin=127.0.0.1-4f26fe64-47b8-42fa-b486-b611c5fd9fae; session_id_sirius=127.0.0.1-56690d16-f124-4a23-ab1f-b8ef19493551; session_id_sirius7=127.0.0.1-d36ccb17-fc1e-4ae1-bcef-c243e14d5549</div></td></tr><tr><td style="font-weight:bold;vertical-align:top;">http_host</td><td style="vertical-align:top;">:</td><td><div>127.0.0.1:8000</div></td></tr><tr><td style="font-weight:bold;vertical-align:top;">http_user_agent</td><td style="vertical-align:top;">:</td><td><div>Mozilla/5.0 (Windows NT 10.0; rv:41.0) Gecko/20100101 Firefox/41.0</div></td></tr><tr><td style="font-weight:bold;vertical-align:top;">is_jython</td><td style="vertical-align:top;">:</td><td><div>False</div></td></tr><tr><td style="font-weight:bold;vertical-align:top;">is_pypy</td><td style="vertical-align:top;">:</td><td><div>False</div></td></tr><tr><td style="font-weight:bold;vertical-align:top;">is_source</td><td style="vertical-align:top;">:</td><td><div>True</div></td></tr><tr><td style="font-weight:bold;vertical-align:top;">local_hosts</td><td style="vertical-align:top;">:</td><td><div><table><tr><td><div>fe80::2443:952:453d:e762%3</div></td></tr><tr><td><div>DESKTOP-0B3EOQ6</div></td></tr><tr><td><div>::ffff:127.0.0.1</div></td></tr><tr><td><div>::1</div></td></tr><tr><td><div>2001:0:5ef5:79fd:2443:952:453d:e762</div></td></tr><tr><td><div>fe80::f581:292a:352:681%2</div></td></tr><tr><td><div>192.168.0.13</div></td></tr><tr><td><div>127.0.0.1</div></td></tr></table></div></td></tr><tr><td style="font-weight:bold;vertical-align:top;">path_info</td><td style="vertical-align:top;">:</td><td><div>/sirius/default/index</div></td></tr><tr><td style="font-weight:bold;vertical-align:top;">query_string</td><td style="vertical-align:top;">:</td><td><div></div></td></tr><tr><td style="font-weight:bold;vertical-align:top;">remote_addr</td><td style="vertical-align:top;">:</td><td><div>127.0.0.1</div></td></tr><tr><td style="font-weight:bold;vertical-align:top;">remote_port</td><td style="vertical-align:top;">:</td><td><div>59451</div></td></tr><tr><td style="font-weight:bold;vertical-align:top;">request_method</td><td style="vertical-align:top;">:</td><td><div>GET</div></td></tr><tr><td style="font-weight:bold;vertical-align:top;">request_uri</td><td style="vertical-align:top;">:</td><td><div>/sirius/default/index</div></td></tr><tr><td style="font-weight:bold;vertical-align:top;">script_name</td><td style="vertical-align:top;">:</td><td><div></div></td></tr><tr><td style="font-weight:bold;vertical-align:top;">server_name</td><td style="vertical-align:top;">:</td><td><div>DESKTOP-0B3EOQ6</div></td></tr><tr><td style="font-weight:bold;vertical-align:top;">server_port</td><td style="vertical-align:top;">:</td><td><div>8000</div></td></tr><tr><td style="font-weight:bold;vertical-align:top;">server_protocol</td><td style="vertical-align:top;">:</td><td><div>HTTP/1.1</div></td></tr><tr><td style="font-weight:bold;vertical-align:top;">server_software</td><td style="vertical-align:top;">:</td><td><div>Rocket 1.2.6</div></td></tr><tr><td style="font-weight:bold;vertical-align:top;">web2py_path</td><td style="vertical-align:top;">:</td><td><div>D:\\CursoWeb2py\\web2py</div></td></tr><tr><td style="font-weight:bold;vertical-align:top;">web2py_version</td><td style="vertical-align:top;">:</td><td><div>2.12.3-stable+timestamp.2015.08.19.00.18.03</div></td></tr><tr><td style="font-weight:bold;vertical-align:top;">wsgi.errors</td><td style="vertical-align:top;">:</td><td><div>&lt;open file &#x27;&lt;stderr&gt;&#x27;, mode &#x27;w&#x27; at 0x0171D0D0&gt;</div></td></tr><tr><td style="font-weight:bold;vertical-align:top;">wsgi.file_wrapper</td><td style="vertical-align:top;">:</td><td><div>&lt;class wsgiref.util.FileWrapper at 0x0263E030&gt;</div></td></tr><tr><td style="font-weight:bold;vertical-align:top;">wsgi.input</td><td style="vertical-align:top;">:</td><td><div>&lt;socket._fileobject object at 0x07B1EAB0&gt;</div></td></tr><tr><td style="font-weight:bold;vertical-align:top;">wsgi.multiprocess</td><td style="vertical-align:top;">:</td><td><div>False</div></td></tr><tr><td style="font-weight:bold;vertical-align:top;">wsgi.multithread</td><td style="vertical-align:top;">:</td><td><div>True</div></td></tr><tr><td style="font-weight:bold;vertical-align:top;">wsgi.run_once</td><td style="vertical-align:top;">:</td><td><div>False</div></td></tr><tr><td style="font-weight:bold;vertical-align:top;">wsgi.url_scheme</td><td style="vertical-align:top;">:</td><td><div>http</div></td></tr><tr><td style="font-weight:bold;vertical-align:top;">wsgi.version</td><td style="vertical-align:top;">:</td><td><div><table><tr><td><div>1</div></td></tr><tr><td><div>0</div></td></tr></table></div></td></tr><tr><td style="font-weight:bold;vertical-align:top;">wsgi_errors</td><td style="vertical-align:top;">:</td><td><div>&lt;open file &#x27;&lt;stderr&gt;&#x27;, mode &#x27;w&#x27; at 0x0171D0D0&gt;</div></td></tr><tr><td style="font-weight:bold;vertical-align:top;">wsgi_file_wrapper</td><td style="vertical-align:top;">:</td><td><div>&lt;class wsgiref.util.FileWrapper at 0x0263E030&gt;</div></td></tr><tr><td style="font-weight:bold;vertical-align:top;">wsgi_input</td><td style="vertical-align:top;">:</td><td><div>&lt;socket._fileobject object at 0x07B1EAB0&gt;</div></td></tr><tr><td style="font-weight:bold;vertical-align:top;">wsgi_multiprocess</td><td style="vertical-align:top;">:</td><td><div>False</div></td></tr><tr><td style="font-weight:bold;vertical-align:top;">wsgi_multithread</td><td style="vertical-align:top;">:</td><td><div>True</div></td></tr><tr><td style="font-weight:bold;vertical-align:top;">wsgi_run_once</td><td style="vertical-align:top;">:</td><td><div>False</div></td></tr><tr><td style="font-weight:bold;vertical-align:top;">wsgi_url_scheme</td><td style="vertical-align:top;">:</td><td><div>http</div></td></tr><tr><td style="font-weight:bold;vertical-align:top;">wsgi_version</td><td style="vertical-align:top;">:</td><td><div><table><tr><td><div>1</div></td></tr><tr><td><div>0</div></td></tr></table></div></td></tr></table></div></td></tr><tr><td style="font-weight:bold;vertical-align:top;">extension</td><td style="vertical-align:top;">:</td><td><div>html</div></td></tr><tr><td style="font-weight:bold;vertical-align:top;">folder</td><td style="vertical-align:top;">:</td><td><div>D:\\CursoWeb2py\\web2py\\applications\\sirius\\</div></td></tr><tr><td style="font-weight:bold;vertical-align:top;">function</td><td style="vertical-align:top;">:</td><td><div>index</div></td></tr><tr><td style="font-weight:bold;vertical-align:top;">global_settings</td><td style="vertical-align:top;">:</td><td><div><table><tr><td style="font-weight:bold;vertical-align:top;">app_folders</td><td style="vertical-align:top;">:</td><td><div>set([&#x27;D:\\\\CursoWeb2py\\\\web2py\\\\applications\\\\admin\\\\&#x27;, &#x27;D:\\\\CursoWeb2py\\\\web2py\\\\applications\\\\sirius\\\\&#x27;, &#x27;D:\\\\CursoWeb2py\\\\web2py\\\\applications\\\\welcome\\\\&#x27;, &#x27;D:\\\\CursoWeb2py\\\\web2py\\\\applications\\\\Sirius7\\\\&#x27;])</div></td></tr><tr><td style="font-weight:bold;vertical-align:top;">applications_parent</td><td style="vertical-align:top;">:</td><td><div>D:\\CursoWeb2py\\web2py</div></td></tr><tr><td style="font-weight:bold;vertical-align:top;">cmd_args</td><td style="vertical-align:top;">:</td><td><div><table></table></div></td></tr><tr><td style="font-weight:bold;vertical-align:top;">cmd_options</td><td style="vertical-align:top;">:</td><td><div>&lt;Values at 0x26b79e0: {&#x27;verbose&#x27;: False, &#x27;ip&#x27;: &#x27;127.0.0.1&#x27;, &#x27;debuglevel&#x27;: 30, &#x27;with_scheduler&#x27;: False, &#x27;ips&#x27;: [&#x27;fe80::2443:952:453d:e762%3&#x27;, &#x27;fe80::f581:292a:352:681%2&#x27;, &#x27;2001:0:5ef5:79fd:2443:952:453d:e762&#x27;, &#x27;192.168.0.13&#x27;], &#x27;shutdown_timeout&#x27;: 5, &#x27;taskbar&#x27;: False, &#x27;with_coverage&#x27;: False, &#x27;scheduler_groups&#x27;: None, &#x27;port&#x27;: 8000, &#x27;maxthreads&#x27;: None, &#x27;softcron&#x27;: False, &#x27;server_name&#x27;: &#x27;DESKTOP-0B3EOQ6&#x27;, &#x27;bpython&#x27;: False, &#x27;nogui&#x27;: False, &#x27;pid_filename&#x27;: &#x27;httpserver.pid&#x27;, &#x27;print_errors&#x27;: False, &#x27;extcron&#x27;: False, &#x27;runcron&#x27;: False, &#x27;run_system_tests&#x27;: False, &#x27;test&#x27;: None, &#x27;folder&#x27;: &#x27;D:\\\\CursoWeb2py\\\\web2py&#x27;, &#x27;config&#x27;: &#x27;&#x27;, &#x27;minthreads&#x27;: None, &#x27;shell&#x27;: None, &#x27;run&#x27;: &#x27;&#x27;, &#x27;log_filename&#x27;: &#x27;httpserver.log&#x27;, &#x27;profiler_dir&#x27;: None, &#x27;args&#x27;: [&#x27;&#x27;], &#x27;socket_timeout&#x27;: 5, &#x27;ssl_ca_certificate&#x27;: None, &#x27;scheduler&#x27;: None, &#x27;interfaces&#x27;: None, &#x27;ssl_private_key&#x27;: &#x27;&#x27;, &#x27;gae&#x27;: None, &#x27;password&#x27;: &#x27;&lt;ask&gt;&#x27;, &#x27;request_queue_size&#x27;: 5, &#x27;ssl_certificate&#x27;: &#x27;&#x27;, &#x27;cronjob&#x27;: False, &#x27;numthreads&#x27;: None, &#x27;quiet&#x27;: False, &#x27;import_models&#x27;: False, &#x27;timeout&#x27;: 10, &#x27;plain&#x27;: False, &#x27;nobanner&#x27;: False}&gt;</div></td></tr><tr><td style="font-weight:bold;vertical-align:top;">db_sessions</td><td style="vertical-align:top;">:</td><td><div>set([])</div></td></tr><tr><td style="font-weight:bold;vertical-align:top;">debugging</td><td style="vertical-align:top;">:</td><td><div>False</div></td></tr><tr><td style="font-weight:bold;vertical-align:top;">gluon_parent</td><td style="vertical-align:top;">:</td><td><div>D:\\CursoWeb2py\\web2py</div></td></tr><tr><td style="font-weight:bold;vertical-align:top;">is_jython</td><td style="vertical-align:top;">:</td><td><div>False</div></td></tr><tr><td style="font-weight:bold;vertical-align:top;">is_pypy</td><td style="vertical-align:top;">:</td><td><div>False</div></td></tr><tr><td style="font-weight:bold;vertical-align:top;">is_source</td><td style="vertical-align:top;">:</td><td><div>True</div></td></tr><tr><td style="font-weight:bold;vertical-align:top;">local_hosts</td><td style="vertical-align:top;">:</td><td><div><table><tr><td><div>fe80::2443:952:453d:e762%3</div></td></tr><tr><td><div>DESKTOP-0B3EOQ6</div></td></tr><tr><td><div>::ffff:127.0.0.1</div></td></tr><tr><td><div>::1</div></td></tr><tr><td><div>2001:0:5ef5:79fd:2443:952:453d:e762</div></td></tr><tr><td><div>fe80::f581:292a:352:681%2</div></td></tr><tr><td><div>192.168.0.13</div></td></tr><tr><td><div>127.0.0.1</div></td></tr></table></div></td></tr><tr><td style="font-weight:bold;vertical-align:top;">web2py_version</td><td style="vertical-align:top;">:</td><td><div>2.12.3-stable+timestamp.2015.08.19.00.18.03</div></td></tr></table></div></td></tr><tr><td style="font-weight:bold;vertical-align:top;">is_https</td><td style="vertical-align:top;">:</td><td><div>False</div></td></tr><tr><td style="font-weight:bold;vertical-align:top;">is_local</td><td style="vertical-align:top;">:</td><td><div>True</div></td></tr><tr><td style="font-weight:bold;vertical-align:top;">is_restful</td><td style="vertical-align:top;">:</td><td><div>False</div></td></tr><tr><td style="font-weight:bold;vertical-align:top;">is_sheduler</td><td style="vertical-align:top;">:</td><td><div>None</div></td></tr><tr><td style="font-weight:bold;vertical-align:top;">is_shell</td><td style="vertical-align:top;">:</td><td><div>None</div></td></tr><tr><td style="font-weight:bold;vertical-align:top;">now</td><td style="vertical-align:top;">:</td><td><div>datetime.datetime(2015, 10, 19, 23, 55, 54, 247000)</div></td></tr><tr><td style="font-weight:bold;vertical-align:top;">raw_args</td><td style="vertical-align:top;">:</td><td><div></div></td></tr><tr><td style="font-weight:bold;vertical-align:top;">raw_extension</td><td style="vertical-align:top;">:</td><td><div>None</div></td></tr><tr><td style="font-weight:bold;vertical-align:top;">url</td><td style="vertical-align:top;">:</td><td><div>/sirius/default/index</div></td></tr><tr><td style="font-weight:bold;vertical-align:top;">utcnow</td><td style="vertical-align:top;">:</td><td><div>datetime.datetime(2015, 10, 20, 2, 55, 54, 247000)</div></td></tr><tr><td style="font-weight:bold;vertical-align:top;">wsgi</td><td style="vertical-align:top;">:</td><td><div>&lt;gluon.main.LazyWSGI object at 0x08DCCE90&gt;</div></td></tr></table></div>'
tRp58
sS'frames'
p59
(lp60
(dp61
S'file'
p62
S'D:\\CursoWeb2py\\web2py\\gluon\\restricted.py'
p63
sS'dump'
p64
(dp65
S'environment'
p66
S"{'A': <class 'gluon.html.A'>, 'ANY_OF': <class 'gluon.validators.ANY_OF'>, 'ASSIGNJS': <function ASSIGNJS>, 'Aluno': <Table alunos (id,nome,cidade,endereco,numero,da...e,created_on,created_by,modified_on,modified_by)>, 'AppConfig': <function AppConfig>, 'Auth': <class 'gluon.tools.Auth'>, 'B': <class 'gluon.html.B'>, 'BEAUTIFY': <class 'gluon.html.BEAUTIFY'>, 'BODY': <class 'gluon.html.BODY'>, 'BR': <class 'gluon.html.BR'>, ...}"
p67
sS'ccode'
p68
S'<code object <module> at 08DADBA8, file "D:\\Curs...cations\\sirius\\views\\default/index.html", line 1>'
p69
ssS'lnum'
p70
I227
sS'lines'
p71
(dp72
I224
S'            ccode = code'
p73
sI225
S'        else:'
p74
sI226
S'            ccode = compile2(code, layer)'
p75
sI227
S'        exec ccode in environment'
p76
sI228
S'    except HTTP:'
p77
sI229
S'        raise'
p78
sI230
S'    except RestrictedError:'
p79
sI231
S'        # do not encapsulate (obfuscate) the original RestrictedError'
p80
sI222
S'    try:'
p81
sI223
S'        if isinstance(code, types.CodeType):'
p82
ssS'call'
p83
S'(code=r"left_sidebar_enabled,right_sidebar_enabled=False...script>\\r\\n</body>\\r\\n</html>\\r\\n\', escape=False)", environment={\'A\': <class \'gluon.html.A\'>, \'ANY_OF\': <class \'gluon.validators.ANY_OF\'>, \'ASSIGNJS\': <function ASSIGNJS>, \'Aluno\': <Table alunos (id,nome,cidade,endereco,numero,da...e,created_on,created_by,modified_on,modified_by)>, \'AppConfig\': <function AppConfig>, \'Auth\': <class \'gluon.tools.Auth\'>, \'B\': <class \'gluon.html.B\'>, \'BEAUTIFY\': <class \'gluon.html.BEAUTIFY\'>, \'BODY\': <class \'gluon.html.BODY\'>, \'BR\': <class \'gluon.html.BR\'>, ...}, layer=r\'D:\\CursoWeb2py\\web2py\\applications\\sirius\\views\\default/index.html\')'
p84
sS'func'
p85
S'restricted'
p86
sa(dp87
g62
S'D:\\CursoWeb2py\\web2py\\applications\\sirius\\views\\default\\index.html'
p88
sg64
(dp89
S'h2'
p90
S'undefined'
p91
sS'message'
p92
S"'Sejam bem vindo, ao sistema de gest\\xc3\\xa3o escolar S...Inform\\xc3\\xa7\\xc3\\xa3o e tecnologia, aliados \\xc3\\xa0 sua gest\\xc3\\xa3o!'"
p93
ssg70
I16
sg71
(dp94
I7
S'response.write(\'" rel="stylesheet" />\\r\\n    <!-- FONT AWESOME ICONS  -->\\r\\n    <link href="\', escape=False)'
p95
sI8
S"response.write(URL('static', 'css/font-awesome.css'))"
p96
sI9
S'response.write(\'" rel="stylesheet" />\\r\\n    <!-- CUSTOM STYLE  -->\\r\\n    <link href="\', escape=False)'
p97
sI10
S"response.write(URL('static', 'css/style.css'))"
p98
sI11
S'response.write(\'" rel="stylesheet" />\\r\\n     <!-- HTML5 Shiv and Respond.js for IE8 support of HTML5 elements and media queries -->\\r\\n    <!-- WARNING: Respond.js doesn\\\'t work if you view the page via file:// -->\\r\\n    <!--[if lt IE 9]>\\r\\n        <script src="https://oss.maxcdn.com/libs/html5shiv/3.7.0/html5shiv.js"></script>\\r\\n        <script src="https://oss.maxcdn.com/libs/respond.js/1.4.2/respond.min.js"></script>\\r\\n    <![endif]-->\\r\\n</head>\\r\\n<body>\\r\\n    <header>\\r\\n        <div class="container">\\r\\n            <div class="row">\\r\\n                <div class="col-md-12">\\r\\n                    <strong>Email: </strong>silviusdobrasil@gmail.com\\r\\n                    &nbsp;&nbsp;\\r\\n                    <strong>Support: </strong>+55-75-9982-4430\\r\\n                </div>\\r\\n\\r\\n            </div>\\r\\n        </div>\\r\\n    </header>\\r\\n    <!-- HEADER END-->\\r\\n    <div class="navbar navbar-inverse set-radius-zero">\\r\\n        <div class="container">\\r\\n            <div class="navbar-header">\\r\\n                <button type="button" class="navbar-toggle" data-toggle="collapse" data-target=".navbar-collapse">\\r\\n                    <span class="icon-bar"></span>\\r\\n                    <span class="icon-bar"></span>\\r\\n                    <span class="icon-bar"></span>\\r\\n                </button>\\r\\n                <a class="navbar-brand" href="\', escape=False)'
p99
sI12
S"response.write(URL('index.html'))"
p100
sI13
S'response.write(\'">\\r\\n                    <h1 style="color:white">Sirius-Web</h1>\\r\\n                </a>\\r\\n\\r\\n            </div>\\r\\n\\r\\n            <div class="left-div">\\r\\n                <div class="user-settings-wrapper">\\r\\n                    <ul class="nav">\\r\\n\\r\\n                        <li class="dropdown">\\r\\n                            <a class="dropdown-toggle" data-toggle="dropdown" href="#" aria-expanded="false">\\r\\n                                <span class="glyphicon glyphicon-user" style="font-size: 25px;"></span>\\r\\n                            </a>\\r\\n                            <div class="dropdown-menu dropdown-settings">\\r\\n                                <div class="media">\\r\\n                                    <a class="media-left" href="#">\\r\\n                                        <img src="\', escape=False)'
p101
sI14
S"response.write(URL('static','img/logoSirius.png'))"
p102
sI15
S'response.write(\'" alt="Sirius" class="img-rounded" width="50" height="50" />\\r\\n                                    </a>\\r\\n                                    <div class="media-body">\\r\\n                                        <h4 class="media-heading">\', escape=False)'
p103
sI16
S'response.write(auth.user.first_name)'
p104
sI17
S'response.write(\'</h4>\\r\\n                                        <h5>Diretor Escolar</h5>\\r\\n\\r\\n                                    </div>\\r\\n                                </div>\\r\\n                                <hr />\\r\\n                                <h5><strong></strong></h5>\\r\\n\\r\\n                                <hr />\\r\\n                                <a href="\', escape=False)'
p105
sI18
S"response.write(URL('user', args='login'))"
p106
sI19
S'response.write(\'" class="btn btn-info btn-sm">Full Profile</a>&nbsp; <a href="\', escape=False)'
p107
sI20
S"response.write(URL('user', args='logout'))"
p108
sI21
S'response.write(\'" class="btn btn-danger btn-sm">Logout</a>\\r\\n\\r\\n                            </div>\\r\\n                        </li>\\r\\n\\r\\n\\r\\n                    </ul>\\r\\n                </div>\\r\\n            </div>\\r\\n        </div>\\r\\n    </div>\\r\\n    <!-- LOGO HEADER END-->\\r\\n    <section class="menu-section">\\r\\n        <div class="container">\\r\\n            <div class="row">\\r\\n                <div class="col-md-12">\\r\\n                    <div class="navbar-collapse collapse ">\\r\\n                        <ul id="menu-top" class="nav navbar-nav navbar-right">\\r\\n                            <li><a  href="index.html">Dashboard</a></li>\\r\\n                            <li><a href="ui.html">UI Elements</a></li>\\r\\n                            <li><a href="table.html">Data Tables</a></li>\\r\\n                            <li><a href="forms.html">Forms</a></li>\\r\\n                             <li><a href="login.html">Login Page</a></li>\\r\\n                            <li><a class="menu-top-active" href="blank.html">Blank Page</a></li>\\r\\n\\r\\n                        </ul>\\r\\n                    </div>\\r\\n                </div>\\r\\n\\r\\n            </div>\\r\\n        </div>\\r\\n    </section>\\r\\n    <!-- MENU SECTION END-->\\r\\n    <div class="content-wrapper">\\r\\n        <div class="container">\\r\\n            <div class="row">\\r\\n                <div class="col-md-12">\\r\\n                    <h4 class="page-head-line">Blank Page</h4>\\r\\n\\r\\n                </div>\\r\\n\\r\\n            </div>\\r\\n            <div class="row">\\r\\n                <div class="col-md-12">\\r\\n                    <div class="alert alert-warning">\\r\\n                        This is blank page for which you can customize for your project.\\r\\n                        Use this admin template 100% free to use for personal and commercial use which is crafted by\\r\\n                        <br />\\r\\n                        <a href="http://www.designbootstrap.com/" target="_blank">DesignBootstrap.com</a> . For more free templates and snippets keep looking <a href="http://www.designbootstrap.com/" target="_blank">DesignBootstrap.com</a> . Hope you will like our work\\r\\n\\r\\n                    </div>\\r\\n                </div>\\r\\n\\r\\n            </div>\\r\\n        </div>\\r\\n    </div>\\r\\n    <!-- CONTENT-WRAPPER SECTION END-->\\r\\n    <footer>\\r\\n        <div class="container">\\r\\n            <div class="row">\\r\\n                <div class="col-md-12">\\r\\n                    &copy; 2015 Silvius do Brasil Ltda | Todos os direitos reservados <a href="http://www.silviusdobrasil.com.br/" target="_blank"></a>\\r\\n                </div>\\r\\n\\r\\n            </div>\\r\\n        </div>\\r\\n    </footer>\\r\\n    <!-- FOOTER SECTION END-->\\r\\n    <!-- JAVASCRIPT AT THE BOTTOM TO REDUCE THE LOADING TIME  -->\\r\\n    <!-- CORE JQUERY SCRIPTS -->\\r\\n    <script src="\', escape=False)'
p109
sI22
S"response.write(URL('static','js/jquery.js'))"
p110
sI23
S'response.write(\'"></script>\\r\\n    <!-- BOOTSTRAP SCRIPTS  -->\\r\\n    <script src="\', escape=False)'
p111
sI24
S"response.write(URL('static', 'js/bootstrap.min.js'))"
p112
sI25
S'response.write(\'"></script>\\r\\n</body>\\r\\n</html>\\r\\n\', escape=False)'
p113
ssg83
S'()'
p114
sg85
S'<module>'
p115
sasS'pyver'
p116
S'Python 2.7.10: D:\\Python27\\python.exe (prefix: D:\\Python27)'
p117
sS'session'
p118
g57
(S's\x9c\x00\x00\x00<div><table><tr><td style="font-weight:bold;vertical-align:top;">flash</td><td style="vertical-align:top;">:</td><td><div>None</div></td></tr></table></div>'
tRp119
sS'etype'
p120
S"<type 'exceptions.AttributeError'>"
p121
sS'date'
p122
S'Mon Oct 19 23:55:54 2015'
p123
sS'response'
p124
g57
(S's\xd3?\x00\x00<div><table><tr><td style="font-weight:bold;vertical-align:top;">body</td><td style="vertical-align:top;">:</td><td><div>&lt;cStringIO.StringO object at 0x08DCC020&gt;</div></td></tr><tr><td style="font-weight:bold;vertical-align:top;">cookies</td><td style="vertical-align:top;">:</td><td><div><table><tr><td style="font-weight:bold;vertical-align:top;">session_id_sirius</td><td style="vertical-align:top;">:</td><td><div>127.0.0.1-56690d16-f124-4a23-ab1f-b8ef19493551<table><tr><td style="font-weight:bold;vertical-align:top;">comment</td><td style="vertical-align:top;">:</td><td><div></div></td></tr><tr><td style="font-weight:bold;vertical-align:top;">domain</td><td style="vertical-align:top;">:</td><td><div></div></td></tr><tr><td style="font-weight:bold;vertical-align:top;">expires</td><td style="vertical-align:top;">:</td><td><div></div></td></tr><tr><td style="font-weight:bold;vertical-align:top;">httponly</td><td style="vertical-align:top;">:</td><td><div></div></td></tr><tr><td style="font-weight:bold;vertical-align:top;">max-age</td><td style="vertical-align:top;">:</td><td><div></div></td></tr><tr><td style="font-weight:bold;vertical-align:top;">path</td><td style="vertical-align:top;">:</td><td><div>/</div></td></tr><tr><td style="font-weight:bold;vertical-align:top;">secure</td><td style="vertical-align:top;">:</td><td><div></div></td></tr><tr><td style="font-weight:bold;vertical-align:top;">version</td><td style="vertical-align:top;">:</td><td><div></div></td></tr></table></div></td></tr></table></div></td></tr><tr><td style="font-weight:bold;vertical-align:top;">delimiters</td><td style="vertical-align:top;">:</td><td><div><table><tr><td><div>{{</div></td></tr><tr><td><div>}}</div></td></tr></table></div></td></tr><tr><td style="font-weight:bold;vertical-align:top;">files</td><td style="vertical-align:top;">:</td><td><div><table></table></div></td></tr><tr><td style="font-weight:bold;vertical-align:top;">flash</td><td style="vertical-align:top;">:</td><td><div></div></td></tr><tr><td style="font-weight:bold;vertical-align:top;">form_label_separator</td><td style="vertical-align:top;">:</td><td><div></div></td></tr><tr><td style="font-weight:bold;vertical-align:top;">formstyle</td><td style="vertical-align:top;">:</td><td><div>bootstrap3_inline</div></td></tr><tr><td style="font-weight:bold;vertical-align:top;">generic_patterns</td><td style="vertical-align:top;">:</td><td><div><table><tr><td><div>*</div></td></tr></table></div></td></tr><tr><td style="font-weight:bold;vertical-align:top;">google_analytics_id</td><td style="vertical-align:top;">:</td><td><div>None</div></td></tr><tr><td style="font-weight:bold;vertical-align:top;">headers</td><td style="vertical-align:top;">:</td><td><div><table><tr><td style="font-weight:bold;vertical-align:top;">X-Powered-By</td><td style="vertical-align:top;">:</td><td><div>web2py</div></td></tr></table></div></td></tr><tr><td style="font-weight:bold;vertical-align:top;">logo</td><td style="vertical-align:top;">:</td><td><div><a class="navbar-brand" href="http://www.web2py.com/" id="web2py-logo"><b>web<span>2</span>py</b>&trade;&nbsp;</a></div></td></tr><tr><td style="font-weight:bold;vertical-align:top;">menu</td><td style="vertical-align:top;">:</td><td><div><table><tr><td><div><table><tr><td><div>Principal</div></td></tr><tr><td><div>False</div></td></tr><tr><td><div>/sirius/default/index</div></td></tr><tr><td><div><table></table></div></td></tr></table></div></td></tr><tr><td><div><table><tr><td><div>Meus sites</div></td></tr><tr><td><div>False</div></td></tr><tr><td><div>/admin/default/site</div></td></tr></table></div></td></tr><tr><td><div><table><tr><td><div>Esta aplica\xc3\xa7\xc3\xa3o</div></td></tr><tr><td><div>False</div></td></tr><tr><td><div>#</div></td></tr><tr><td><div><table><tr><td><div><table><tr><td><div>Design</div></td></tr><tr><td><div>False</div></td></tr><tr><td><div>/admin/default/design/sirius</div></td></tr></table></div></td></tr><tr><td><div><li class="divider"></li></div></td></tr><tr><td><div><table><tr><td><div>Controlador</div></td></tr><tr><td><div>False</div></td></tr><tr><td><div>/admin/default/edit/sirius/controllers/default.py</div></td></tr></table></div></td></tr><tr><td><div><table><tr><td><div>Visualiza\xc3\xa7\xc3\xa3o</div></td></tr><tr><td><div>False</div></td></tr><tr><td><div>/admin/default/edit/sirius/views/default/index.html</div></td></tr></table></div></td></tr><tr><td><div><table><tr><td><div>Modelo BD</div></td></tr><tr><td><div>False</div></td></tr><tr><td><div>/admin/default/edit/sirius/models/db.py</div></td></tr></table></div></td></tr><tr><td><div><table><tr><td><div>Modelo de Menu</div></td></tr><tr><td><div>False</div></td></tr><tr><td><div>/admin/default/edit/sirius/models/menu.py</div></td></tr></table></div></td></tr><tr><td><div><table><tr><td><div>Config.ini</div></td></tr><tr><td><div>False</div></td></tr><tr><td><div>/admin/default/edit/sirius/private/appconfig.ini</div></td></tr></table></div></td></tr><tr><td><div><table><tr><td><div>Layout</div></td></tr><tr><td><div>False</div></td></tr><tr><td><div>/admin/default/edit/sirius/views/layout.html</div></td></tr></table></div></td></tr><tr><td><div><table><tr><td><div>Folha de estilo</div></td></tr><tr><td><div>False</div></td></tr><tr><td><div>/admin/default/edit/sirius/static/css/web2py-bootstrap3.css</div></td></tr></table></div></td></tr><tr><td><div><table><tr><td><div>banco de dados</div></td></tr><tr><td><div>False</div></td></tr><tr><td><div>/sirius/appadmin/index</div></td></tr></table></div></td></tr><tr><td><div><table><tr><td><div>Erros</div></td></tr><tr><td><div>False</div></td></tr><tr><td><div>/admin/default/errors/sirius</div></td></tr></table></div></td></tr><tr><td><div><table><tr><td><div>Sobre</div></td></tr><tr><td><div>False</div></td></tr><tr><td><div>/admin/default/about/sirius</div></td></tr></table></div></td></tr></table></div></td></tr></table></div></td></tr><tr><td><div><table><tr><td><div>web2py.com</div></td></tr><tr><td><div>False</div></td></tr><tr><td><div>#</div></td></tr><tr><td><div><table><tr><td><div><table><tr><td><div>Download</div></td></tr><tr><td><div>False</div></td></tr><tr><td><div>http://www.web2py.com/examples/default/download</div></td></tr></table></div></td></tr><tr><td><div><table><tr><td><div>Suporte</div></td></tr><tr><td><div>False</div></td></tr><tr><td><div>http://www.web2py.com/examples/default/support</div></td></tr></table></div></td></tr><tr><td><div><table><tr><td><div>Demo</div></td></tr><tr><td><div>False</div></td></tr><tr><td><div>http://web2py.com/demo_admin</div></td></tr></table></div></td></tr><tr><td><div><table><tr><td><div>Exemplos r\xc3\xa1pidos</div></td></tr><tr><td><div>False</div></td></tr><tr><td><div>http://web2py.com/examples/default/examples</div></td></tr></table></div></td></tr><tr><td><div><table><tr><td><div>Perguntas frequentes</div></td></tr><tr><td><div>False</div></td></tr><tr><td><div>http://web2py.com/AlterEgo</div></td></tr></table></div></td></tr><tr><td><div><table><tr><td><div>V\xc3\xaddeos</div></td></tr><tr><td><div>False</div></td></tr><tr><td><div>http://www.web2py.com/examples/default/videos/</div></td></tr></table></div></td></tr><tr><td><div><table><tr><td><div>Aplica\xc3\xa7\xc3\xb5es gratuitas</div></td></tr><tr><td><div>False</div></td></tr><tr><td><div>http://web2py.com/appliances</div></td></tr></table></div></td></tr><tr><td><div><table><tr><td><div>Plugins</div></td></tr><tr><td><div>False</div></td></tr><tr><td><div>http://web2py.com/plugins</div></td></tr></table></div></td></tr><tr><td><div><table><tr><td><div>Receitas</div></td></tr><tr><td><div>False</div></td></tr><tr><td><div>http://web2pyslices.com/</div></td></tr></table></div></td></tr></table></div></td></tr></table></div></td></tr><tr><td><div><table><tr><td><div>Documenta\xc3\xa7\xc3\xa3o</div></td></tr><tr><td><div>False</div></td></tr><tr><td><div>#</div></td></tr><tr><td><div><table><tr><td><div><table><tr><td><div>Online book</div></td></tr><tr><td><div>False</div></td></tr><tr><td><div>http://www.web2py.com/book</div></td></tr></table></div></td></tr><tr><td><div><li class="divider"></li></div></td></tr><tr><td><div><table><tr><td><div>Pref\xc3\xa1cio</div></td></tr><tr><td><div>False</div></td></tr><tr><td><div>http://www.web2py.com/book/default/chapter/00</div></td></tr></table></div></td></tr><tr><td><div><table><tr><td><div>Introdu\xc3\xa7\xc3\xa3o</div></td></tr><tr><td><div>False</div></td></tr><tr><td><div>http://www.web2py.com/book/default/chapter/01</div></td></tr></table></div></td></tr><tr><td><div><table><tr><td><div>Python</div></td></tr><tr><td><div>False</div></td></tr><tr><td><div>http://www.web2py.com/book/default/chapter/02</div></td></tr></table></div></td></tr><tr><td><div><table><tr><td><div>Vis\xc3\xa3o Geral</div></td></tr><tr><td><div>False</div></td></tr><tr><td><div>http://www.web2py.com/book/default/chapter/03</div></td></tr></table></div></td></tr><tr><td><div><table><tr><td><div>The Core</div></td></tr><tr><td><div>False</div></td></tr><tr><td><div>http://www.web2py.com/book/default/chapter/04</div></td></tr></table></div></td></tr><tr><td><div><table><tr><td><div>As views</div></td></tr><tr><td><div>False</div></td></tr><tr><td><div>http://www.web2py.com/book/default/chapter/05</div></td></tr></table></div></td></tr><tr><td><div><table><tr><td><div>banco de dados</div></td></tr><tr><td><div>False</div></td></tr><tr><td><div>http://www.web2py.com/book/default/chapter/06</div></td></tr></table></div></td></tr><tr><td><div><table><tr><td><div>Formul\xc3\xa1rios e Validadores</div></td></tr><tr><td><div>False</div></td></tr><tr><td><div>http://www.web2py.com/book/default/chapter/07</div></td></tr></table></div></td></tr><tr><td><div><table><tr><td><div>Email e SMS</div></td></tr><tr><td><div>False</div></td></tr><tr><td><div>http://www.web2py.com/book/default/chapter/08</div></td></tr></table></div></td></tr><tr><td><div><table><tr><td><div>Controle de Acesso</div></td></tr><tr><td><div>False</div></td></tr><tr><td><div>http://www.web2py.com/book/default/chapter/09</div></td></tr></table></div></td></tr><tr><td><div><table><tr><td><div>Servi\xc3\xa7o</div></td></tr><tr><td><div>False</div></td></tr><tr><td><div>http://www.web2py.com/book/default/chapter/10</div></td></tr></table></div></td></tr><tr><td><div><table><tr><td><div>Receitas de Ajax</div></td></tr><tr><td><div>False</div></td></tr><tr><td><div>http://www.web2py.com/book/default/chapter/11</div></td></tr></table></div></td></tr><tr><td><div><table><tr><td><div>Componentes e Plugins</div></td></tr><tr><td><div>False</div></td></tr><tr><td><div>http://www.web2py.com/book/default/chapter/12</div></td></tr></table></div></td></tr><tr><td><div><table><tr><td><div>Receitas de deploy</div></td></tr><tr><td><div>False</div></td></tr><tr><td><div>http://www.web2py.com/book/default/chapter/13</div></td></tr></table></div></td></tr><tr><td><div><table><tr><td><div>Outras Receitas</div></td></tr><tr><td><div>False</div></td></tr><tr><td><div>http://www.web2py.com/book/default/chapter/14</div></td></tr></table></div></td></tr><tr><td><div><table><tr><td><div>Helping web2py</div></td></tr><tr><td><div>False</div></td></tr><tr><td><div>http://www.web2py.com/book/default/chapter/15</div></td></tr></table></div></td></tr><tr><td><div><table><tr><td><div>Buy web2py\'s book</div></td></tr><tr><td><div>False</div></td></tr><tr><td><div>http://stores.lulu.com/web2py</div></td></tr></table></div></td></tr></table></div></td></tr></table></div></td></tr><tr><td><div><table><tr><td><div>Comunidade</div></td></tr><tr><td><div>False</div></td></tr><tr><td><div>None</div></td></tr><tr><td><div><table><tr><td><div><table><tr><td><div>Grupos</div></td></tr><tr><td><div>False</div></td></tr><tr><td><div>http://www.web2py.com/examples/default/usergroups</div></td></tr></table></div></td></tr><tr><td><div><table><tr><td><div>Twitter</div></td></tr><tr><td><div>False</div></td></tr><tr><td><div>http://twitter.com/web2py</div></td></tr></table></div></td></tr><tr><td><div><table><tr><td><div>Chat ao vivo</div></td></tr><tr><td><div>False</div></td></tr><tr><td><div>http://webchat.freenode.net/?channels=web2py</div></td></tr></table></div></td></tr></table></div></td></tr></table></div></td></tr></table></div></td></tr><tr><td style="font-weight:bold;vertical-align:top;">meta</td><td style="vertical-align:top;">:</td><td><div><table><tr><td style="font-weight:bold;vertical-align:top;">author</td><td style="vertical-align:top;">:</td><td><div>Your Name &lt;you@example.com&gt;</div></td></tr><tr><td style="font-weight:bold;vertical-align:top;">description</td><td style="vertical-align:top;">:</td><td><div>a cool new app</div></td></tr><tr><td style="font-weight:bold;vertical-align:top;">generator</td><td style="vertical-align:top;">:</td><td><div>Web2py Web Framework</div></td></tr><tr><td style="font-weight:bold;vertical-align:top;">keywords</td><td style="vertical-align:top;">:</td><td><div>web2py, python, framework</div></td></tr></table></div></td></tr><tr><td style="font-weight:bold;vertical-align:top;">models_to_run</td><td style="vertical-align:top;">:</td><td><div><table><tr><td><div>^\\w+\\.py$</div></td></tr><tr><td><div>^default/\\w+\\.py$</div></td></tr><tr><td><div>^default/index/\\w+\\.py$</div></td></tr></table></div></td></tr><tr><td style="font-weight:bold;vertical-align:top;">postprocessing</td><td style="vertical-align:top;">:</td><td><div><table></table></div></td></tr><tr><td style="font-weight:bold;vertical-align:top;">session_client</td><td style="vertical-align:top;">:</td><td><div>127.0.0.1</div></td></tr><tr><td style="font-weight:bold;vertical-align:top;">session_cookie_compression_level</td><td style="vertical-align:top;">:</td><td><div>None</div></td></tr><tr><td style="font-weight:bold;vertical-align:top;">session_cookie_expires</td><td style="vertical-align:top;">:</td><td><div>None</div></td></tr><tr><td style="font-weight:bold;vertical-align:top;">session_cookie_key</td><td style="vertical-align:top;">:</td><td><div>None</div></td></tr><tr><td style="font-weight:bold;vertical-align:top;">session_data_name</td><td style="vertical-align:top;">:</td><td><div>session_data_sirius</div></td></tr><tr><td style="font-weight:bold;vertical-align:top;">session_file</td><td style="vertical-align:top;">:</td><td><div>&lt;open file &#x27;D:\\\\CursoWeb2py\\\\web2py\\\\applications\\\\sirius\\\\sessions\\\\0f7\\\\1bf\\\\127.0.0.1-56690d16-f124-4a23-ab1f-b8ef19493551&#x27;, mode &#x27;rb+&#x27; at 0x08DAB548&gt;</div></td></tr><tr><td style="font-weight:bold;vertical-align:top;">session_filename</td><td style="vertical-align:top;">:</td><td><div>D:\\CursoWeb2py\\web2py\\applications\\sirius\\sessions\\127.0.0.1-56690d16-f124-4a23-ab1f-b8ef19493551</div></td></tr><tr><td style="font-weight:bold;vertical-align:top;">session_hash</td><td style="vertical-align:top;">:</td><td><div>3ab4e4964aac212a401f13fcfa649572</div></td></tr><tr><td style="font-weight:bold;vertical-align:top;">session_id</td><td style="vertical-align:top;">:</td><td><div>127.0.0.1-56690d16-f124-4a23-ab1f-b8ef19493551</div></td></tr><tr><td style="font-weight:bold;vertical-align:top;">session_id_name</td><td style="vertical-align:top;">:</td><td><div>session_id_sirius</div></td></tr><tr><td style="font-weight:bold;vertical-align:top;">session_locked</td><td style="vertical-align:top;">:</td><td><div>True</div></td></tr><tr><td style="font-weight:bold;vertical-align:top;">session_masterapp</td><td style="vertical-align:top;">:</td><td><div>sirius</div></td></tr><tr><td style="font-weight:bold;vertical-align:top;">session_new</td><td style="vertical-align:top;">:</td><td><div>False</div></td></tr><tr><td style="font-weight:bold;vertical-align:top;">session_storage_type</td><td style="vertical-align:top;">:</td><td><div>file</div></td></tr><tr><td style="font-weight:bold;vertical-align:top;">status</td><td style="vertical-align:top;">:</td><td><div>200</div></td></tr><tr><td style="font-weight:bold;vertical-align:top;">subtitle</td><td style="vertical-align:top;">:</td><td><div></div></td></tr><tr><td style="font-weight:bold;vertical-align:top;">title</td><td style="vertical-align:top;">:</td><td><div>Sirius</div></td></tr><tr><td style="font-weight:bold;vertical-align:top;">view</td><td style="vertical-align:top;">:</td><td><div>default/index.html</div></td></tr></table></div>'
tRp125
sS'locals'
p126
(dp127
S'Service'
p128
S"<class 'gluon.tools.Service'>"
p129
sS'OBJECT'
p130
S"<class 'gluon.html.OBJECT'>"
p131
sS'SQLDB'
p132
S"<class 'pydal.base.DAL'>"
p133
sS'Biblioteca'
p134
S'<Table bibliotecas (id,arquivo,disciplina,profes...e,created_on,created_by,modified_on,modified_by)>'
p135
sg118
S"<Storage {'flash': None, '_formkey[login]': ['63...e769b', '4ed661fd-b7c7-4327-936d-ff4e416ee71b']}>"
p136
sS'LINK'
p137
S"<class 'gluon.html.LINK'>"
p138
sS'BR'
p139
S"<class 'gluon.html.BR'>"
p140
sS'local_import'
p141
S'<function <lambda>>'
p142
sS'OPTGROUP'
p143
S"<class 'gluon.html.OPTGROUP'>"
p144
sS'__package__'
p145
S'None'
p146
sS'PRE'
p147
S"<class 'gluon.html.PRE'>"
p148
sS'IS_INT_IN_RANGE'
p149
S"<class 'gluon.validators.IS_INT_IN_RANGE'>"
p150
sS'left_sidebar_enabled'
p151
S'False'
p152
sS'IS_LOWER'
p153
S"<class 'gluon.validators.IS_LOWER'>"
p154
sS'IS_STRONG'
p155
S"<class 'gluon.validators.IS_STRONG'>"
p156
sS'cache'
p157
S'<gluon.cache.Cache object>'
p158
sS'IS_IN_DB'
p159
S"<class 'gluon.validators.IS_IN_DB'>"
p160
sS'TAG'
p161
S'<gluon.html.__TAG__ object>'
p162
sS'SQLField'
p163
S"<class 'pydal.objects.Field'>"
p164
sS'mail'
p165
S'<gluon.tools.Mail object>'
p166
sS'BODY'
p167
S"<class 'gluon.html.BODY'>"
p168
sS'IS_DATE_IN_RANGE'
p169
S"<class 'gluon.validators.IS_DATE_IN_RANGE'>"
p170
sS'IFRAME'
p171
S"<class 'gluon.html.IFRAME'>"
p172
sS'URL'
p173
S'<function URL>'
p174
sS'__file__'
p175
S"r'D:\\CursoWeb2py\\web2py\\applications\\sirius\\views\\default/index.html'"
p176
sS'db'
p177
S'<DAL uri="postgres:******@localhost/sirius-web">'
p178
sS'auth'
p179
S'<gluon.tools.Auth object>'
p180
sS'P'
S"<class 'gluon.html.P'>"
p181
sS'TFOOT'
p182
S"<class 'gluon.html.TFOOT'>"
p183
sS'XHTML'
p184
S"<class 'gluon.html.XHTML'>"
p185
sS'datetime'
p186
S"<type 'datetime.datetime'>"
p187
sS'ON'
p188
S'True'
p189
sS'OL'
p190
S"<class 'gluon.html.OL'>"
p191
sS'TEXTAREA'
p192
S"<class 'gluon.html.TEXTAREA'>"
p193
sS'MENU'
p194
S"<class 'gluon.html.MENU'>"
p195
sS'Aluno'
p196
S'<Table alunos (id,nome,cidade,endereco,numero,da...e,created_on,created_by,modified_on,modified_by)>'
p197
sS'EM'
p198
S"<class 'gluon.html.EM'>"
p199
sS'CODE'
p200
S"<class 'gluon.html.CODE'>"
p201
sS'HTTP'
p202
S"<class 'gluon.http.HTTP'>"
p203
sS'HR'
p204
S"<class 'gluon.html.HR'>"
p205
sS'IS_DATETIME'
p206
S"<class 'gluon.validators.IS_DATETIME'>"
p207
sS'STYLE'
p208
S"<class 'gluon.html.STYLE'>"
p209
sS'LABEL'
p210
S"<class 'gluon.html.LABEL'>"
p211
sS'CLEANUP'
p212
S"<class 'gluon.validators.CLEANUP'>"
p213
sS'plugins'
p214
S'<gluon.tools.PluginManager object>'
p215
sS'SELECT'
p216
S"<class 'gluon.html.SELECT'>"
p217
sS'CENTER'
p218
S"<class 'gluon.html.CENTER'>"
p219
sS'Crud'
p220
S"<class 'gluon.tools.Crud'>"
p221
sS'Auth'
p222
S"<class 'gluon.tools.Auth'>"
p223
sS'DEVELOPMENT_MENU'
p224
g189
sS'__builtins__'
p225
S"{'ArithmeticError': <type 'exceptions.ArithmeticError'>, 'AssertionError': <type 'exceptions.AssertionError'>, 'AttributeError': <type 'exceptions.AttributeError'>, 'BaseException': <type 'exceptions.BaseException'>, 'BufferError': <type 'exceptions.BufferError'>, 'BytesWarning': <type 'exceptions.BytesWarning'>, 'DeprecationWarning': <type 'exceptions.DeprecationWarning'>, 'EOFError': <type 'exceptions.EOFError'>, 'Ellipsis': Ellipsis, 'EnvironmentError': <type 'exceptions.EnvironmentError'>, ...}"
p226
sS'HTML'
p227
S"<class 'gluon.html.HTML'>"
p228
sS'SQLFORM'
p229
S"<class 'gluon.sqlhtml.SQLFORM'>"
p230
sS'LOAD'
p231
S'<function LOAD>'
p232
sS'redirect'
p233
S'<function redirect>'
p234
sS'FIELDSET'
p235
S"<class 'gluon.html.FIELDSET'>"
p236
sS'Forum'
p237
S'<Table foruns (id,titulo,disciplina,mensagem,is_...e,created_on,created_by,modified_on,modified_by)>'
p238
sS'IS_EQUAL_TO'
p239
S"<class 'gluon.validators.IS_EQUAL_TO'>"
p240
sS'Professor'
p241
S'<Table professores (id,nome,cidade,endereco,nume...e,created_on,created_by,modified_on,modified_by)>'
p242
sS'embed64'
p243
S'<function embed64>'
p244
sS'IS_LIST_OF'
p245
S"<class 'gluon.validators.IS_LIST_OF'>"
p246
sS'INPUT'
p247
S"<class 'gluon.html.INPUT'>"
p248
sS'EMBED'
p249
S"<class 'gluon.html.EMBED'>"
p250
sS'_'
S'<function _>'
p251
sS'IS_IMAGE'
p252
S"<class 'gluon.validators.IS_IMAGE'>"
p253
sS'myconf'
p254
S"{'forms': {'formstyle': 'bootstrap3_inline', 'se...asil@gmail.com', 'server': 'smtp.gmail.com:587'}}"
p255
sS'H2'
p256
S"<class 'gluon.html.H2'>"
p257
sS'H3'
p258
S"<class 'gluon.html.H3'>"
p259
sS'BUTTON'
p260
S"<class 'gluon.html.BUTTON'>"
p261
sS'H1'
p262
S"<class 'gluon.html.H1'>"
p263
sS'H6'
p264
S"<class 'gluon.html.H6'>"
p265
sS'H4'
p266
S"<class 'gluon.html.H4'>"
p267
sS'H5'
p268
S"<class 'gluon.html.H5'>"
p269
sS'UL'
p270
S"<class 'gluon.html.UL'>"
p271
sS'IS_UPPER'
p272
S"<class 'gluon.validators.IS_UPPER'>"
p273
sS'xmlescape'
p274
S'<function xmlescape>'
p275
sS'UF'
p276
S"['AC', 'AL', 'AP', 'AM', 'BA', 'CE', 'DF', 'ES', 'GO', 'MA', 'MT', 'MS', 'MG', 'PR', 'PB', 'PA', 'PE', 'PI', 'RJ', 'RN', ...]"
p277
sS'OPTION'
p278
S"<class 'gluon.html.OPTION'>"
p279
sS'TITLE'
p280
S"<class 'gluon.html.TITLE'>"
p281
sS'CRYPT'
p282
S"<class 'gluon.validators.CRYPT'>"
p283
sS'IS_EMPTY_OR'
p284
S"<class 'gluon.validators.IS_EMPTY_OR'>"
p285
sS'MARKMIN'
p286
S"<class 'gluon.html.MARKMIN'>"
p287
sS'Nota'
p288
S'<Table notas (id,aluno,professor,disciplina,unid...e,created_on,created_by,modified_on,modified_by)>'
p289
sS'__name__'
p290
S"'__restricted__'"
p291
sS'IS_DATE'
p292
S"<class 'gluon.validators.IS_DATE'>"
p293
sS'message'
p294
S"'Sejam bem vindo, ao sistema de gest\\xc3\\xa3o escolar S...Inform\\xc3\\xa7\\xc3\\xa3o e tecnologia, aliados \\xc3\\xa0 sua gest\\xc3\\xa3o!'"
p295
sS'STRONG'
p296
S"<class 'gluon.html.STRONG'>"
p297
sS'COL'
p298
S"<class 'gluon.html.COL'>"
p299
sS'service'
p300
S'<gluon.tools.Service object>'
p301
sS'SCRIPT'
p302
S"<class 'gluon.html.SCRIPT'>"
p303
sS'Comentario'
p304
S'<Table comentarios (id,postagem,mensagem,is_active,created_on,created_by,modified_on,modified_by)>'
p305
sS'TABLE'
p306
S"<class 'gluon.html.TABLE'>"
p307
sS'IS_IPV4'
p308
S"<class 'gluon.validators.IS_IPV4'>"
p309
sS'IS_LENGTH'
p310
S"<class 'gluon.validators.IS_LENGTH'>"
p311
sS'IS_IPV6'
p312
S"<class 'gluon.validators.IS_IPV6'>"
p313
sS'XML'
p314
S"<class 'gluon.html.XML'>"
p315
sS'B'
S"<class 'gluon.html.B'>"
p316
sS'IMG'
p317
S"<class 'gluon.html.IMG'>"
p318
sS'SQLTABLE'
p319
S"<class 'gluon.sqlhtml.SQLTABLE'>"
p320
sS'IS_MATCH'
p321
S"<class 'gluon.validators.IS_MATCH'>"
p322
sS'IS_ALPHANUMERIC'
p323
S"<class 'gluon.validators.IS_ALPHANUMERIC'>"
p324
sS'__author__'
p325
S"'Franklin'"
p326
sS'SPAN'
p327
S"<class 'gluon.html.SPAN'>"
p328
sS'IS_JSON'
p329
S"<class 'gluon.validators.IS_JSON'>"
p330
sS'IS_IPADDRESS'
p331
S"<class 'gluon.validators.IS_IPADDRESS'>"
p332
sS'IS_SLUG'
p333
S"<class 'gluon.validators.IS_SLUG'>"
p334
sS'BEAUTIFY'
p335
S"<class 'gluon.html.BEAUTIFY'>"
p336
sS'META'
p337
S"<class 'gluon.html.META'>"
p338
sS'AppConfig'
p339
S'<function AppConfig>'
p340
sS'Disciplina'
p341
S'<Table disciplinas (id,nome,ch,is_active,created_on,created_by,modified_on,modified_by)>'
p342
sS'IS_EMAIL'
p343
S"<class 'gluon.validators.IS_EMAIL'>"
p344
sS'IS_NOT_EMPTY'
p345
S"<class 'gluon.validators.IS_NOT_EMPTY'>"
p346
sS'UNIDADE'
p347
S"['I', 'II', 'III', 'IV']"
p348
sS'TBODY'
p349
S"<class 'gluon.html.TBODY'>"
p350
sS'CAT'
p351
S"<class 'gluon.html.CAT'>"
p352
sS'Field'
p353
S"<class 'pydal.objects.Field'>"
p354
sS'IS_LIST_OF_EMAILS'
p355
S"<class 'gluon.validators.IS_LIST_OF_EMAILS'>"
p356
sS'DIV'
p357
S"<class 'gluon.html.DIV'>"
p358
sS'LEGEND'
p359
S"<class 'gluon.html.LEGEND'>"
p360
sS'COLGROUP'
p361
S"<class 'gluon.html.COLGROUP'>"
p362
sS'DAL'
p363
S"<class 'pydal.base.DAL'>"
p364
sS'ASSIGNJS'
p365
S'<function ASSIGNJS>'
p366
sS'TR'
p367
S"<class 'gluon.html.TR'>"
p368
sS'LI'
p369
S"<class 'gluon.html.LI'>"
p370
sS'right_sidebar_enabled'
p371
g189
sS'TH'
p372
S"<class 'gluon.html.TH'>"
p373
sS'TD'
p374
S"<class 'gluon.html.TD'>"
p375
sS'PluginManager'
p376
S"<class 'gluon.tools.PluginManager'>"
p377
sS'IS_URL'
p378
S"<class 'gluon.validators.IS_URL'>"
p379
sS'Cidade'
p380
S'<Table cidades (id,cep,nome,uf,is_active,created_on,created_by,modified_on,modified_by)>'
p381
sS'A'
S"<class 'gluon.html.A'>"
p382
sS'HEAD'
p383
S"<class 'gluon.html.HEAD'>"
p384
sS'IS_DATETIME_IN_RANGE'
p385
S"<class 'gluon.validators.IS_DATETIME_IN_RANGE'>"
p386
sS'FORM'
p387
S"<class 'gluon.html.FORM'>"
p388
sS'I'
S"<class 'gluon.html.I'>"
p389
sS'crud'
p390
S'<gluon.tools.Crud object>'
p391
sS'IS_NOT_IN_DB'
p392
S"<class 'gluon.validators.IS_NOT_IN_DB'>"
p393
sg124
S"<Storage {'body': <cStringIO.StringO object at 0...a> at 0x08DC78B0>, 'view': 'default/index.html'}>"
p394
sS'THEAD'
p395
S"<class 'gluon.html.THEAD'>"
p396
sS'ANY_OF'
p397
S"<class 'gluon.validators.ANY_OF'>"
p398
sS'IS_NULL_OR'
p399
S"<class 'gluon.validators.IS_EMPTY_OR'>"
p400
sS'IS_TIME'
p401
S"<class 'gluon.validators.IS_TIME'>"
p402
sS'IS_FLOAT_IN_RANGE'
p403
S"<class 'gluon.validators.IS_FLOAT_IN_RANGE'>"
p404
sg56
S"<Storage {'_vars': None, 'function': 'index', 'c...:\\\\CursoWeb2py\\\\web2py\\\\applications\\\\sirius\\\\'}>"
p405
sS'IS_EXPR'
p406
S"<class 'gluon.validators.IS_EXPR'>"
p407
sS'T'
S'<gluon.languages.translator object>'
p408
sS'IS_IN_SET'
p409
S"<class 'gluon.validators.IS_IN_SET'>"
p410
sS'IS_UPLOAD_FILENAME'
p411
S"<class 'gluon.validators.IS_UPLOAD_FILENAME'>"
p412
sS'TT'
p413
S"<class 'gluon.html.TT'>"
p414
sS'IS_DECIMAL_IN_RANGE'
p415
S"<class 'gluon.validators.IS_DECIMAL_IN_RANGE'>"
p416
sssS'traceback'
p417
S'Traceback (most recent call last):\n  File "D:\\CursoWeb2py\\web2py\\gluon\\restricted.py", line 227, in restricted\n    exec ccode in environment\n  File "D:\\CursoWeb2py\\web2py\\applications\\sirius\\views\\default/index.html", line 16, in <module>\n    <h2>{{=message}}</h2>\nAttributeError: \'NoneType\' object has no attribute \'first_name\'\n'
p418
s.